; Function Attrs: inlinehint nounwind uwtable
define internal fastcc range(i32 0, 2) i32 @Gia_Min2ManGatherSupp_rec(ptr noundef %0, i32 noundef %1, ptr noundef %2, ptr noundef %3) unnamed_addr #6 {
  %5 = getelementptr i8, ptr %0, i64 176
  %.val29 = load i32, ptr %5, align 8, !tbaa !60
  %6 = getelementptr i8, ptr %0, i64 616
  %.val30 = load ptr, ptr %6, align 8, !tbaa !61
  %7 = sext i32 %1 to i64
  %8 = getelementptr inbounds i32, ptr %.val30, i64 %7
  %9 = load i32, ptr %8, align 4, !tbaa !47
  %10 = add nsw i32 %.val29, -1
  %.not = icmp eq i32 %9, %10
  br i1 %.not, label %93, label %11

11:                                               ; preds = %4
  %.not43 = icmp eq i32 %9, %.val29
  br i1 %.not43, label %93, label %12

12:                                               ; preds = %11
  store i32 %.val29, ptr %8, align 4, !tbaa !47
  %13 = getelementptr i8, ptr %0, i64 32
  %.val = load ptr, ptr %13, align 8, !tbaa !50
  %14 = getelementptr inbounds %struct.Gia_Obj_t_, ptr %.val, i64 %7
  %.val35 = load i64, ptr %14, align 4
  %15 = and i64 %.val35, 2684354559
  %narrow.i.not = icmp eq i64 %15, 2684354559
  br i1 %narrow.i.not, label %16, label %48

16:                                               ; preds = %12
  %17 = getelementptr inbounds nuw i8, ptr %2, i64 4
  %18 = load i32, ptr %17, align 4, !tbaa !12
  %19 = load i32, ptr %2, align 8, !tbaa !16
  %20 = icmp eq i32 %18, %19
  br i1 %20, label %21, label %.Vec_IntGrow.exit10_crit_edge.i

.Vec_IntGrow.exit10_crit_edge.i:                  ; preds = %16
  %.phi.trans.insert.i = getelementptr inbounds nuw i8, ptr %2, i64 8
  %.pre.i = load ptr, ptr %.phi.trans.insert.i, align 8, !tbaa !17
  br label %Vec_IntPush.exit

21:                                               ; preds = %16
  %22 = icmp slt i32 %18, 16
  br i1 %22, label %23, label %31

23:                                               ; preds = %21
  %24 = getelementptr inbounds nuw i8, ptr %2, i64 8
  %25 = load ptr, ptr %24, align 8, !tbaa !17
  %.not9.i.i = icmp eq ptr %25, null
  br i1 %.not9.i.i, label %28, label %26

26:                                               ; preds = %23
  %27 = tail call dereferenceable_or_null(64) ptr @realloc(ptr noundef nonnull %25, i64 noundef 64) #18
  br label %Vec_IntGrow.exit.i

28:                                               ; preds = %23
  %29 = tail call noalias dereferenceable_or_null(64) ptr @malloc(i64 noundef 64) #16
  br label %Vec_IntGrow.exit.i

Vec_IntGrow.exit.i:                               ; preds = %28, %26
  %30 = phi ptr [ %27, %26 ], [ %29, %28 ]
  store ptr %30, ptr %24, align 8, !tbaa !17
  store i32 16, ptr %2, align 8, !tbaa !16
  br label %Vec_IntPush.exit

31:                                               ; preds = %21
  %32 = shl nuw nsw i32 %18, 1
  %33 = getelementptr inbounds nuw i8, ptr %2, i64 8
  %34 = load ptr, ptr %33, align 8, !tbaa !17
  %.not9.i9.i = icmp eq ptr %34, null
  %35 = zext nneg i32 %32 to i64
  %36 = shl nuw nsw i64 %35, 2
  br i1 %.not9.i9.i, label %39, label %37

37:                                               ; preds = %31
  %38 = tail call ptr @realloc(ptr noundef nonnull %34, i64 noundef %36) #18
  br label %41

39:                                               ; preds = %31
  %40 = tail call noalias ptr @malloc(i64 noundef %36) #16
  br label %41

41:                                               ; preds = %39, %37
  %42 = phi ptr [ %38, %37 ], [ %40, %39 ]
  store ptr %42, ptr %33, align 8, !tbaa !17
  store i32 %32, ptr %2, align 8, !tbaa !16
  br label %Vec_IntPush.exit

Vec_IntPush.exit:                                 ; preds = %.Vec_IntGrow.exit10_crit_edge.i, %Vec_IntGrow.exit.i, %41
  %43 = phi ptr [ %.pre.i, %.Vec_IntGrow.exit10_crit_edge.i ], [ %42, %41 ], [ %30, %Vec_IntGrow.exit.i ]
  %44 = load i32, ptr %17, align 4, !tbaa !12
  %45 = add nsw i32 %44, 1
  store i32 %45, ptr %17, align 4, !tbaa !12
  %46 = sext i32 %44 to i64
  %47 = getelementptr inbounds i32, ptr %43, i64 %46
  store i32 %1, ptr %47, align 4, !tbaa !47
  br label %93

48:                                               ; preds = %12
  %49 = trunc i64 %.val35 to i32
  %50 = and i32 %49, 536870911
  %51 = sub nsw i32 %1, %50
  %52 = tail call fastcc i32 @Gia_Min2ManGatherSupp_rec(ptr noundef nonnull %0, i32 noundef %51, ptr noundef %2, ptr noundef %3)
  %.val28 = load i64, ptr %14, align 4
  %53 = lshr i64 %.val28, 32
  %54 = trunc nuw i64 %53 to i32
  %55 = and i32 %54, 536870911
  %56 = sub nsw i32 %1, %55
  %57 = tail call fastcc i32 @Gia_Min2ManGatherSupp_rec(ptr noundef nonnull %0, i32 noundef %56, ptr noundef %2, ptr noundef %3)
  %58 = getelementptr inbounds nuw i8, ptr %3, i64 4
  %59 = load i32, ptr %58, align 4, !tbaa !12
  %60 = load i32, ptr %3, align 8, !tbaa !16
  %61 = icmp eq i32 %59, %60
  br i1 %61, label %62, label %.Vec_IntGrow.exit10_crit_edge.i36

.Vec_IntGrow.exit10_crit_edge.i36:                ; preds = %48
  %.phi.trans.insert.i37 = getelementptr inbounds nuw i8, ptr %3, i64 8
  %.pre.i38 = load ptr, ptr %.phi.trans.insert.i37, align 8, !tbaa !17
  br label %Vec_IntPush.exit42

62:                                               ; preds = %48
  %63 = icmp slt i32 %59, 16
  br i1 %63, label %64, label %72

64:                                               ; preds = %62
  %65 = getelementptr inbounds nuw i8, ptr %3, i64 8
  %66 = load ptr, ptr %65, align 8, !tbaa !17
  %.not9.i.i40 = icmp eq ptr %66, null
  br i1 %.not9.i.i40, label %69, label %67

67:                                               ; preds = %64
  %68 = tail call dereferenceable_or_null(64) ptr @realloc(ptr noundef nonnull %66, i64 noundef 64) #18
  br label %Vec_IntGrow.exit.i41

69:                                               ; preds = %64
  %70 = tail call noalias dereferenceable_or_null(64) ptr @malloc(i64 noundef 64) #16
  br label %Vec_IntGrow.exit.i41

Vec_IntGrow.exit.i41:                             ; preds = %69, %67
  %71 = phi ptr [ %68, %67 ], [ %70, %69 ]
  store ptr %71, ptr %65, align 8, !tbaa !17
  store i32 16, ptr %3, align 8, !tbaa !16
  br label %Vec_IntPush.exit42

72:                                               ; preds = %62
  %73 = shl nuw nsw i32 %59, 1
  %74 = getelementptr inbounds nuw i8, ptr %3, i64 8
  %75 = load ptr, ptr %74, align 8, !tbaa !17
  %.not9.i9.i39 = icmp eq ptr %75, null
  %76 = zext nneg i32 %73 to i64
  %77 = shl nuw nsw i64 %76, 2
  br i1 %.not9.i9.i39, label %80, label %78

78:                                               ; preds = %72
  %79 = tail call ptr @realloc(ptr noundef nonnull %75, i64 noundef %77) #18
  br label %82

80:                                               ; preds = %72
  %81 = tail call noalias ptr @malloc(i64 noundef %77) #16
  br label %82

82:                                               ; preds = %80, %78
  %83 = phi ptr [ %79, %78 ], [ %81, %80 ]
  store ptr %83, ptr %74, align 8, !tbaa !17
  store i32 %73, ptr %3, align 8, !tbaa !16
  br label %Vec_IntPush.exit42

Vec_IntPush.exit42:                               ; preds = %.Vec_IntGrow.exit10_crit_edge.i36, %Vec_IntGrow.exit.i41, %82
  %84 = phi ptr [ %.pre.i38, %.Vec_IntGrow.exit10_crit_edge.i36 ], [ %83, %82 ], [ %71, %Vec_IntGrow.exit.i41 ]
  %85 = load i32, ptr %58, align 4, !tbaa !12
  %86 = add nsw i32 %85, 1
  store i32 %86, ptr %58, align 4, !tbaa !12
  %87 = sext i32 %85 to i64
  %88 = getelementptr inbounds i32, ptr %84, i64 %87
  store i32 %1, ptr %88, align 4, !tbaa !47
  %89 = icmp ne i32 %52, 0
  %90 = icmp ne i32 %57, 0
  %91 = select i1 %89, i1 true, i1 %90
  %92 = zext i1 %91 to i32
  br label %93

93:                                               ; preds = %11, %4, %Vec_IntPush.exit42, %Vec_IntPush.exit
  %.0 = phi i32 [ 0, %Vec_IntPush.exit ], [ %92, %Vec_IntPush.exit42 ], [ 1, %4 ], [ 0, %11 ]
  ret i32 %.0
}